(dp0
I32225
(lp1
cnumpy.core.multiarray
scalar
p2
(cnumpy
dtype
p3
(S'f4'
p4
I0
I1
tp5
Rp6
(I3
S'<'
p7
NNNI-1
I-1
I0
tp8
bS'\xa7\xfb?@'
p9
tp10
Rp11
ag2
(g6
S'\x0fk\xb2@'
p12
tp13
Rp14
ag2
(g6
S'\xff\xb7\x92@'
p15
tp16
Rp17
ag2
(g6
S'Ax1@'
p18
tp19
Rp20
ag2
(g6
S'\x17w>@'
p21
tp22
Rp23
ag2
(g6
S'b\xae5@'
p24
tp25
Rp26
ag2
(g6
S'#\xb4<@'
p27
tp28
Rp29
ag2
(g6
S'DV\xb5@'
p30
tp31
Rp32
ag2
(g6
S'd\xf2\x9a@'
p33
tp34
Rp35
ag2
(g6
S'f]6@'
p36
tp37
Rp38
ag2
(g6
S'\xa7\xb8\x9f@'
p39
tp40
Rp41
ag2
(g6
S'\x07\x84\xb9@'
p42
tp43
Rp44
ag2
(g6
S'Ch;@'
p45
tp46
Rp47
ag2
(g6
S'\xa8\xe9\x97@'
p48
tp49
Rp50
ag2
(g6
S').\xb3@'
p51
tp52
Rp53
ag2
(g6
S'\n\x8b\xb6@'
p54
tp55
Rp56
ag2
(g6
S'\xf9q\x93@'
p57
tp58
Rp59
ag2
(g6
S'L-<@'
p60
tp61
Rp62
ag2
(g6
S'N\xa2\xba@'
p63
tp64
Rp65
ag2
(g6
S'F\xbe\x93@'
p66
tp67
Rp68
ag2
(g6
S'o\xa9\x91@'
p69
tp70
Rp71
ag2
(g6
S'\xd4Q\x9b@'
p72
tp73
Rp74
ag2
(g6
S'\xfe\xdd\x98@'
p75
tp76
Rp77
ag2
(g6
S'\xbe\x8d\xb3@'
p78
tp79
Rp80
ag2
(g6
S'\x14\xd4\x9d@'
p81
tp82
Rp83
ag2
(g6
S'g\xe77@'
p84
tp85
Rp86
ag2
(g6
S'U\xce3@'
p87
tp88
Rp89
ag2
(g6
S'\x17j\xb4@'
p90
tp91
Rp92
ag2
(g6
S'\x99\xe7/@'
p93
tp94
Rp95
ag2
(g6
S'\xf4Z\x97@'
p96
tp97
Rp98
ag2
(g6
S'\x9a\x8d4@'
p99
tp100
Rp101
ag2
(g6
S'\x9ej\x9f@'
p102
tp103
Rp104
ag2
(g6
S'\xc2\x0b3@'
p105
tp106
Rp107
asI32931
(lp108
g2
(g6
S'\x90\xfc\xbf@'
p109
tp110
Rp111
ag2
(g6
S'\xe1\xf9\x98@'
p112
tp113
Rp114
ag2
(g6
S'?\xba!@'
p115
tp116
Rp117
ag2
(g6
S'\xdeI @'
p118
tp119
Rp120
ag2
(g6
S'\xe7B\xba@'
p121
tp122
Rp123
ag2
(g6
S'\x1b\xb1+@'
p124
tp125
Rp126
ag2
(g6
S'\xf8\xf3"@'
p127
tp128
Rp129
ag2
(g6
S'\x9ao-@'
p130
tp131
Rp132
ag2
(g6
S'\x80\xe4*@'
p133
tp134
Rp135
ag2
(g6
S'8\xed(@'
p136
tp137
Rp138
ag2
(g6
S'\x93x\x90@'
p139
tp140
Rp141
ag2
(g6
S'\x95\x88\xb6@'
p142
tp143
Rp144
ag2
(g6
S'\xc4S*@'
p145
tp146
Rp147
ag2
(g6
S'\xadC0@'
p148
tp149
Rp150
ag2
(g6
S'cs$@'
p151
tp152
Rp153
ag2
(g6
S'\xbdZ\x95@'
p154
tp155
Rp156
ag2
(g6
S'\x9e\xbe\x90@'
p157
tp158
Rp159
asI32228
(lp160
g2
(g6
S'\xd0\xe5\xaf@'
p161
tp162
Rp163
ag2
(g6
S'b\xb4\xaa@'
p164
tp165
Rp166
ag2
(g6
S'^\xc5\x7f@'
p167
tp168
Rp169
ag2
(g6
S'\xcf7s@'
p170
tp171
Rp172
ag2
(g6
S'\x88@\xac@'
p173
tp174
Rp175
ag2
(g6
S'\xa9rq@'
p176
tp177
Rp178
ag2
(g6
S'b\x01{@'
p179
tp180
Rp181
ag2
(g6
S'\xf9\xe7y@'
p182
tp183
Rp184
ag2
(g6
S'\xdb\x04}@'
p185
tp186
Rp187
ag2
(g6
S'\xb6#\xaf@'
p188
tp189
Rp190
ag2
(g6
S'a]n@'
p191
tp192
Rp193
asI32233
(lp194
g2
(g6
S'\xe2\xea\x7f@'
p195
tp196
Rp197
ag2
(g6
S'7\xf2\xa1@'
p198
tp199
Rp200
ag2
(g6
S'\xc8Q\xa4@'
p201
tp202
Rp203
ag2
(g6
S'\xa9\xdb<@'
p204
tp205
Rp206
ag2
(g6
S'>\xd2w@'
p207
tp208
Rp209
ag2
(g6
S'\xae\xc7\xa9@'
p210
tp211
Rp212
ag2
(g6
S'\xb6\xf8s@'
p213
tp214
Rp215
ag2
(g6
S'\xd6 3@'
p216
tp217
Rp218
ag2
(g6
S'Yqu@'
p219
tp220
Rp221
ag2
(g6
S'\xa5z\xaa@'
p222
tp223
Rp224
ag2
(g6
S'\xbd\xf3\xa6@'
p225
tp226
Rp227
ag2
(g6
S'\x95L7@'
p228
tp229
Rp230
ag2
(g6
S'vn5@'
p231
tp232
Rp233
asI32234
(lp234
g2
(g6
S'&Jl@'
p235
tp236
Rp237
ag2
(g6
S'\xe8[j@'
p238
tp239
Rp240
ag2
(g6
S'\xc0\xc7\xac@'
p241
tp242
Rp243
ag2
(g6
S'\x01\x85\xab@'
p244
tp245
Rp246
ag2
(g6
S'\x93\xf6\xae@'
p247
tp248
Rp249
ag2
(g6
S'"\x15\xaa@'
p250
tp251
Rp252
ag2
(g6
S'{+\xa5@'
p253
tp254
Rp255
ag2
(g6
S'\xe5\xcc\xb0@'
p256
tp257
Rp258
ag2
(g6
S'Q-\xb1@'
p259
tp260
Rp261
asI32235
(lp262
g2
(g6
S'\x8bb\xbe@'
p263
tp264
Rp265
ag2
(g6
S'\x94\xb4\xbb@'
p266
tp267
Rp268
ag2
(g6
S'\x97\xd5\xb1@'
p269
tp270
Rp271
ag2
(g6
S'\xb4,\x96@'
p272
tp273
Rp274
ag2
(g6
S'\xe8\xe9\x92@'
p275
tp276
Rp277
ag2
(g6
S'A\x91\x83@'
p278
tp279
Rp280
ag2
(g6
S'?.\x87@'
p281
tp282
Rp283
ag2
(g6
S'\x1f[\xb8@'
p284
tp285
Rp286
ag2
(g6
S'S5\xba@'
p287
tp288
Rp289
ag2
(g6
S'i\x0f\x98@'
p290
tp291
Rp292
ag2
(g6
S'\xdc\xe9\x98@'
p293
tp294
Rp295
ag2
(g6
S'Mv\x99@'
p296
tp297
Rp298
ag2
(g6
S'\xc5\xd5\xb2@'
p299
tp300
Rp301
ag2
(g6
S'\xaa\x1b\xb9@'
p302
tp303
Rp304
ag2
(g6
S'tn\x9b@'
p305
tp306
Rp307
ag2
(g6
S'\xc2x\x95@'
p308
tp309
Rp310
asI34188
(lp311
g2
(g6
S'\xc7\x94\x85@'
p312
tp313
Rp314
ag2
(g6
S'\xa5\n\x83@'
p315
tp316
Rp317
ag2
(g6
S'\xc0\x8a\x83@'
p318
tp319
Rp320
asI34189
(lp321
g2
(g6
S'o\xe1\x8f@'
p322
tp323
Rp324
ag2
(g6
S'\xb7i\x8d@'
p325
tp326
Rp327
ag2
(g6
S'K\xb9\xaf@'
p328
tp329
Rp330
ag2
(g6
S'\x81\xad1@'
p331
tp332
Rp333
ag2
(g6
S'#o\xce@'
p334
tp335
Rp336
ag2
(g6
S'\xa4\xf0\xa1@'
p337
tp338
Rp339
ag2
(g6
S'\xfe&?@'
p340
tp341
Rp342
ag2
(g6
S'F\xeb.@'
p343
tp344
Rp345
ag2
(g6
S'\xc7\xc3\xcc@'
p346
tp347
Rp348
ag2
(g6
S'\xc8\xd8\xce@'
p349
tp350
Rp351
ag2
(g6
S'\xe9P\xaf@'
p352
tp353
Rp354
ag2
(g6
S'\xfc\x97\x8f@'
p355
tp356
Rp357
ag2
(g6
S'K\x025@'
p358
tp359
Rp360
ag2
(g6
S'\xccl\xc8@'
p361
tp362
Rp363
ag2
(g6
S'\xeew8@'
p364
tp365
Rp366
ag2
(g6
S'\x91N\xcb@'
p367
tp368
Rp369
ag2
(g6
S'\xc63:@'
p370
tp371
Rp372
ag2
(g6
S'+\xcd\x9e@'
p373
tp374
Rp375
ag2
(g6
S'\x14\xd6\xc8@'
p376
tp377
Rp378
ag2
(g6
S'V\xfb\xcf@'
p379
tp380
Rp381
ag2
(g6
S'x\xb4?@'
p382
tp383
Rp384
ag2
(g6
S':\xaf<@'
p385
tp386
Rp387
ag2
(g6
S'\xab\x955@'
p388
tp389
Rp390
ag2
(g6
S'<\x00\xc8@'
p391
tp392
Rp393
ag2
(g6
S'\x9d\x89\x88@'
p394
tp395
Rp396
ag2
(g6
S'^R\xae@'
p397
tp398
Rp399
asI32238
(lp400
g2
(g6
S'\xac\x17,@'
p401
tp402
Rp403
ag2
(g6
S'V\x1f\x1e@'
p404
tp405
Rp406
ag2
(g6
S'\x7f\x92\xbe@'
p407
tp408
Rp409
ag2
(g6
S"\x80y'@"
p410
tp411
Rp412
ag2
(g6
S'*\x15#@'
p413
tp414
Rp415
ag2
(g6
S'\xbb\x18\xbb@'
p416
tp417
Rp418
ag2
(g6
S'\xd3s\xc2@'
p419
tp420
Rp421
ag2
(g6
S'\xc4f\xc0@'
p422
tp423
Rp424
ag2
(g6
S'\xdfv\xb7@'
p425
tp426
Rp427
ag2
(g6
S'\xdd\xdb\xbc@'
p428
tp429
Rp430
ag2
(g6
S'\xe0\xb3*@'
p431
tp432
Rp433
ag2
(g6
S'n\xea\xbf@'
p434
tp435
Rp436
asI32239
(lp437
g2
(g6
S'9>Y@'
p438
tp439
Rp440
ag2
(g6
S'\x04kS@'
p441
tp442
Rp443
ag2
(g6
S'oO\x83@'
p444
tp445
Rp446
ag2
(g6
S'\xe2\x0e\x85@'
p447
tp448
Rp449
ag2
(g6
S'-\xad\x1f@'
p450
tp451
Rp452
ag2
(g6
S'\x99\xe1\x80@'
p453
tp454
Rp455
ag2
(g6
S'\x17\xeb\x16@'
p456
tp457
Rp458
ag2
(g6
S'2\x88N@'
p459
tp460
Rp461
ag2
(g6
S'}3\n@'
p462
tp463
Rp464
ag2
(g6
S'\xc3\xea\x1e@'
p465
tp466
Rp467
ag2
(g6
S'\xac\xa5\x15@'
p468
tp469
Rp470
ag2
(g6
S'\xd5\xf6\x85@'
p471
tp472
Rp473
ag2
(g6
S'\x16\x0bz@'
p474
tp475
Rp476
asI32273
(lp477
g2
(g6
S'$\xfcS@'
p478
tp479
Rp480
ag2
(g6
S'\xc6^X@'
p481
tp482
Rp483
ag2
(g6
S'?\x7fT@'
p484
tp485
Rp486
ag2
(g6
S'cK\x9f@'
p487
tp488
Rp489
ag2
(g6
S'\xa4$X@'
p490
tp491
Rp492
ag2
(g6
S'T\xf1W@'
p493
tp494
Rp495
ag2
(g6
S't\x84\xc7@'
p496
tp497
Rp498
ag2
(g6
S"'\xe7T@"
p499
tp500
Rp501
ag2
(g6
S'{T\xcb@'
p502
tp503
Rp504
ag2
(g6
S'\x8a\xb5\xc7@'
p505
tp506
Rp507
ag2
(g6
S',\xd9\x9b@'
p508
tp509
Rp510
ag2
(g6
S'\xcd\xcf\xcd@'
p511
tp512
Rp513
ag2
(g6
S'\xee}\x9a@'
p514
tp515
Rp516
ag2
(g6
S'\x0f\xdb\xc8@'
p517
tp518
Rp519
ag2
(g6
S'\x90\x89\x9e@'
p520
tp521
Rp522
ag2
(g6
S'\x11\xb0\xcc@'
p523
tp524
Rp525
ag2
(g6
S'\x92*\xc7@'
p526
tp527
Rp528
ag2
(g6
S'\xf3\xaf\x9b@'
p529
tp530
Rp531
ag2
(g6
S'leV@'
p532
tp533
Rp534
ag2
(g6
S'\xb4{\x9c@'
p535
tp536
Rp537
ag2
(g6
S'\x15%S@'
p538
tp539
Rp540
ag2
(g6
S'V\xf8\xc9@'
p541
tp542
Rp543
ag2
(g6
S'\x97\xe9\xce@'
p544
tp545
Rp546
ag2
(g6
S'\x1a\xe7U@'
p547
tp548
Rp549
ag2
(g6
S'\x9b\x05\xce@'
p550
tp551
Rp552
ag2
(g6
S'|\xc4R@'
p553
tp554
Rp555
ag2
(g6
S'\x7f\xfc\x99@'
p556
tp557
Rp558
ag2
(g6
S'.{\x9f@'
p559
tp560
Rp561
ag2
(g6
S'^\xfa\x9f@'
p562
tp563
Rp564
asI34164
(lp565
g2
(g6
S'\x97\x9c\x10@'
p566
tp567
Rp568
ag2
(g6
S'\x82F\x16@'
p569
tp570
Rp571
ag2
(g6
S'\xb7Qh@'
p572
tp573
Rp574
ag2
(g6
S'\xc2Cp@'
p575
tp576
Rp577
ag2
(g6
S'\x12{\x12@'
p578
tp579
Rp580
ag2
(g6
S'\x96\x14\x17@'
p581
tp582
Rp583
ag2
(g6
S'\xa7\xa1g@'
p584
tp585
Rp586
asI34165
(lp587
g2
(g6
S'"\xd5\n@'
p588
tp589
Rp590
ag2
(g6
S'\x9d]\x03@'
p591
tp592
Rp593
ag2
(g6
S'\xbc\x17b@'
p594
tp595
Rp596
ag2
(g6
S'\xb1d\x05@'
p597
tp598
Rp599
ag2
(g6
S'\xb6A\x00@'
p600
tp601
Rp602
ag2
(g6
S'\x12}\x11@'
p603
tp604
Rp605
ag2
(g6
S'r\xa0j@'
p606
tp607
Rp608
ag2
(g6
S'\xdc%\x0c@'
p609
tp610
Rp611
ag2
(g6
S'=\x91\x02@'
p612
tp613
Rp614
ag2
(g6
S'\xf6v\x06@'
p615
tp616
Rp617
asI32201
(lp618
g2
(g6
S'u\x0e\x99@'
p619
tp620
Rp621
ag2
(g6
S'\x80Q\x97@'
p622
tp623
Rp624
ag2
(g6
S'G\xf9t@'
p625
tp626
Rp627
ag2
(g6
S"\xe8\x0c'@"
p628
tp629
Rp630
ag2
(g6
S"\x8c\xf2'@"
p631
tp632
Rp633
ag2
(g6
S'\x04Ps@'
p634
tp635
Rp636
ag2
(g6
S'+\xe5\x96@'
p637
tp638
Rp639
ag2
(g6
S'\x8dj\x93@'
p640
tp641
Rp642
ag2
(g6
S'\xf6\xa1\x98@'
p643
tp644
Rp645
ag2
(g6
S'$\xe8n@'
p646
tp647
Rp648
ag2
(g6
S'5\x08*@'
p649
tp650
Rp651
ag2
(g6
S'\x8d\xc9w@'
p652
tp653
Rp654
ag2
(g6
S'd\xe2m@'
p655
tp656
Rp657
ag2
(g6
S'\x0ev\x95@'
p658
tp659
Rp660
ag2
(g6
S'[\x1er@'
p661
tp662
Rp663
asI32932
(lp664
g2
(g6
S'j\xfa\xcd@'
p665
tp666
Rp667
ag2
(g6
S'/T\xce@'
p668
tp669
Rp670
ag2
(g6
S'\xe1.1@'
p671
tp672
Rp673
ag2
(g6
S'b\xfc`@'
p674
tp675
Rp676
ag2
(g6
S'D\x91,@'
p677
tp678
Rp679
ag2
(g6
S'eym@'
p680
tp681
Rp682
ag2
(g6
S'\x08\xd0o@'
p683
tp684
Rp685
ag2
(g6
S'\xb6l/@'
p686
tp687
Rp688
ag2
(g6
S'\n\xa5\xcd@'
p689
tp690
Rp691
ag2
(g6
S'K\x0e*@'
p692
tp693
Rp694
ag2
(g6
S'l\xf1!@'
p695
tp696
Rp697
ag2
(g6
S'\xd8k&@'
p698
tp699
Rp700
ag2
(g6
S'\xaf\xbe$@'
p701
tp702
Rp703
ag2
(g6
S'r\x90x@'
p704
tp705
Rp706
ag2
(g6
S'\xb3\xf7 @'
p707
tp708
Rp709
ag2
(g6
S's\xfcp@'
p710
tp711
Rp712
ag2
(g6
S'TAc@'
p713
tp714
Rp715
ag2
(g6
S'\x96\xbd#@'
p716
tp717
Rp718
ag2
(g6
S'x\xfai@'
p719
tp720
Rp721
ag2
(g6
S'\x9b\xcen@'
p722
tp723
Rp724
ag2
(g6
S'\xb8\xd1(@'
p725
tp726
Rp727
ag2
(g6
S'|\xfby@'
p728
tp729
Rp730
asI32237
(lp731
g2
(g6
S'\xd5h;@'
p732
tp733
Rp734
asI30506
(lp735
g2
(g6
S'\x8d\x98\x9e@'
p736
tp737
Rp738
ag2
(g6
S'%\x91\x9f@'
p739
tp740
Rp741
ag2
(g6
S"'\x9e\xa0@"
p742
tp743
Rp744
ag2
(g6
S'\xa4\xdc\x9f@'
p745
tp746
Rp747
ag2
(g6
S'P\xdd\xa0@'
p748
tp749
Rp750
ag2
(g6
S'\xdaR\x9f@'
p751
tp752
Rp753
ag2
(g6
S'\x9cQ\x9e@'
p754
tp755
Rp756
ag2
(g6
S'\x16\xbd\xa0@'
p757
tp758
Rp759
as.