(dp0
I32225
(lp1
cnumpy.core.multiarray
scalar
p2
(cnumpy
dtype
p3
(S'f4'
p4
I0
I1
tp5
Rp6
(I3
S'<'
p7
NNNI-1
I-1
I0
tp8
bS'\xa7\xfb?@'
p9
tp10
Rp11
ag2
(g6
S'\x0fk\xb2@'
p12
tp13
Rp14
ag2
(g6
S'\x17j\xb4@'
p15
tp16
Rp17
ag2
(g6
S').\xb3@'
p18
tp19
Rp20
ag2
(g6
S'\x07\x84\xb9@'
p21
tp22
Rp23
ag2
(g6
S'DV\xb5@'
p24
tp25
Rp26
ag2
(g6
S'N\xa2\xba@'
p27
tp28
Rp29
asI32931
(lp30
g2
(g6
S'\x90\xfc\xbf@'
p31
tp32
Rp33
ag2
(g6
S'\xe1\xf9\x98@'
p34
tp35
Rp36
ag2
(g6
S'\x93x\x90@'
p37
tp38
Rp39
ag2
(g6
S'\xbdZ\x95@'
p40
tp41
Rp42
ag2
(g6
S'\x9e\xbe\x90@'
p43
tp44
Rp45
asI32228
(lp46
g2
(g6
S'\xd0\xe5\xaf@'
p47
tp48
Rp49
ag2
(g6
S'b\xb4\xaa@'
p50
tp51
Rp52
ag2
(g6
S'^\xc5\x7f@'
p53
tp54
Rp55
ag2
(g6
S'\x88@\xac@'
p56
tp57
Rp58
ag2
(g6
S'\xa9rq@'
p59
tp60
Rp61
ag2
(g6
S'\xb6#\xaf@'
p62
tp63
Rp64
asI32233
(lp65
g2
(g6
S'\xe2\xea\x7f@'
p66
tp67
Rp68
ag2
(g6
S'7\xf2\xa1@'
p69
tp70
Rp71
ag2
(g6
S'\xa9\xdb<@'
p72
tp73
Rp74
ag2
(g6
S'\xae\xc7\xa9@'
p75
tp76
Rp77
ag2
(g6
S'\xd6 3@'
p78
tp79
Rp80
ag2
(g6
S'\xa5z\xaa@'
p81
tp82
Rp83
ag2
(g6
S'\x95L7@'
p84
tp85
Rp86
ag2
(g6
S'vn5@'
p87
tp88
Rp89
asI32234
(lp90
g2
(g6
S'&Jl@'
p91
tp92
Rp93
ag2
(g6
S'\xe8[j@'
p94
tp95
Rp96
asI32235
(lp97
g2
(g6
S'\x8bb\xbe@'
p98
tp99
Rp100
ag2
(g6
S'\x94\xb4\xbb@'
p101
tp102
Rp103
ag2
(g6
S'\x97\xd5\xb1@'
p104
tp105
Rp106
ag2
(g6
S'\xdc\xe9\x98@'
p107
tp108
Rp109
ag2
(g6
S'S5\xba@'
p110
tp111
Rp112
ag2
(g6
S'\xe8\xe9\x92@'
p113
tp114
Rp115
ag2
(g6
S'A\x91\x83@'
p116
tp117
Rp118
ag2
(g6
S'i\x0f\x98@'
p119
tp120
Rp121
ag2
(g6
S'\x1f[\xb8@'
p122
tp123
Rp124
ag2
(g6
S'?.\x87@'
p125
tp126
Rp127
ag2
(g6
S'\xb4,\x96@'
p128
tp129
Rp130
ag2
(g6
S'Mv\x99@'
p131
tp132
Rp133
ag2
(g6
S'\xc5\xd5\xb2@'
p134
tp135
Rp136
ag2
(g6
S'\xaa\x1b\xb9@'
p137
tp138
Rp139
ag2
(g6
S'tn\x9b@'
p140
tp141
Rp142
ag2
(g6
S'\xc2x\x95@'
p143
tp144
Rp145
asI34188
(lp146
g2
(g6
S'\xc7\x94\x85@'
p147
tp148
Rp149
ag2
(g6
S'\xa5\n\x83@'
p150
tp151
Rp152
ag2
(g6
S'\xc0\x8a\x83@'
p153
tp154
Rp155
asI34189
(lp156
g2
(g6
S'o\xe1\x8f@'
p157
tp158
Rp159
ag2
(g6
S'\xb7i\x8d@'
p160
tp161
Rp162
ag2
(g6
S'\xc7\xc3\xcc@'
p163
tp164
Rp165
ag2
(g6
S'\x91N\xcb@'
p166
tp167
Rp168
ag2
(g6
S'\xc8\xd8\xce@'
p169
tp170
Rp171
ag2
(g6
S'\xe9P\xaf@'
p172
tp173
Rp174
ag2
(g6
S'\x14\xd6\xc8@'
p175
tp176
Rp177
ag2
(g6
S'K\xb9\xaf@'
p178
tp179
Rp180
ag2
(g6
S'\xccl\xc8@'
p181
tp182
Rp183
ag2
(g6
S'<\x00\xc8@'
p184
tp185
Rp186
ag2
(g6
S'V\xfb\xcf@'
p187
tp188
Rp189
ag2
(g6
S'#o\xce@'
p190
tp191
Rp192
asI32238
(lp193
g2
(g6
S'\xac\x17,@'
p194
tp195
Rp196
ag2
(g6
S'V\x1f\x1e@'
p197
tp198
Rp199
ag2
(g6
S'\x7f\x92\xbe@'
p200
tp201
Rp202
ag2
(g6
S"\x80y'@"
p203
tp204
Rp205
ag2
(g6
S'*\x15#@'
p206
tp207
Rp208
ag2
(g6
S'\xbb\x18\xbb@'
p209
tp210
Rp211
ag2
(g6
S'\xd3s\xc2@'
p212
tp213
Rp214
ag2
(g6
S'\xc4f\xc0@'
p215
tp216
Rp217
ag2
(g6
S'\xdfv\xb7@'
p218
tp219
Rp220
ag2
(g6
S'\xdd\xdb\xbc@'
p221
tp222
Rp223
ag2
(g6
S'\xe0\xb3*@'
p224
tp225
Rp226
ag2
(g6
S'n\xea\xbf@'
p227
tp228
Rp229
asI32239
(lp230
g2
(g6
S'9>Y@'
p231
tp232
Rp233
ag2
(g6
S'\x04kS@'
p234
tp235
Rp236
ag2
(g6
S'oO\x83@'
p237
tp238
Rp239
ag2
(g6
S'\xe2\x0e\x85@'
p240
tp241
Rp242
ag2
(g6
S'\x99\xe1\x80@'
p243
tp244
Rp245
ag2
(g6
S'2\x88N@'
p246
tp247
Rp248
ag2
(g6
S'\xd5\xf6\x85@'
p249
tp250
Rp251
ag2
(g6
S'\x16\x0bz@'
p252
tp253
Rp254
asI32201
(lp255
g2
(g6
S'u\x0e\x99@'
p256
tp257
Rp258
ag2
(g6
S'\x80Q\x97@'
p259
tp260
Rp261
ag2
(g6
S'G\xf9t@'
p262
tp263
Rp264
ag2
(g6
S'\x04Ps@'
p265
tp266
Rp267
ag2
(g6
S'+\xe5\x96@'
p268
tp269
Rp270
ag2
(g6
S'\x8dj\x93@'
p271
tp272
Rp273
ag2
(g6
S'\xf6\xa1\x98@'
p274
tp275
Rp276
ag2
(g6
S'$\xe8n@'
p277
tp278
Rp279
ag2
(g6
S'\x8d\xc9w@'
p280
tp281
Rp282
ag2
(g6
S'd\xe2m@'
p283
tp284
Rp285
ag2
(g6
S'\x0ev\x95@'
p286
tp287
Rp288
asI32932
(lp289
g2
(g6
S'j\xfa\xcd@'
p290
tp291
Rp292
ag2
(g6
S'/T\xce@'
p293
tp294
Rp295
ag2
(g6
S'\xe1.1@'
p296
tp297
Rp298
ag2
(g6
S'b\xfc`@'
p299
tp300
Rp301
ag2
(g6
S'D\x91,@'
p302
tp303
Rp304
ag2
(g6
S'eym@'
p305
tp306
Rp307
ag2
(g6
S'\x08\xd0o@'
p308
tp309
Rp310
ag2
(g6
S'\xb6l/@'
p311
tp312
Rp313
ag2
(g6
S'\n\xa5\xcd@'
p314
tp315
Rp316
ag2
(g6
S'K\x0e*@'
p317
tp318
Rp319
ag2
(g6
S'l\xf1!@'
p320
tp321
Rp322
ag2
(g6
S'\xd8k&@'
p323
tp324
Rp325
ag2
(g6
S'\xaf\xbe$@'
p326
tp327
Rp328
ag2
(g6
S'r\x90x@'
p329
tp330
Rp331
ag2
(g6
S'\xb3\xf7 @'
p332
tp333
Rp334
ag2
(g6
S's\xfcp@'
p335
tp336
Rp337
ag2
(g6
S'TAc@'
p338
tp339
Rp340
ag2
(g6
S'\x96\xbd#@'
p341
tp342
Rp343
ag2
(g6
S'x\xfai@'
p344
tp345
Rp346
ag2
(g6
S'\x9b\xcen@'
p347
tp348
Rp349
ag2
(g6
S'\xb8\xd1(@'
p350
tp351
Rp352
ag2
(g6
S'|\xfby@'
p353
tp354
Rp355
asI32237
(lp356
g2
(g6
S'\xd5h;@'
p357
tp358
Rp359
as.