(dp0
I32225
(lp1
cnumpy.core.multiarray
scalar
p2
(cnumpy
dtype
p3
(S'f4'
p4
I0
I1
tp5
Rp6
(I3
S'<'
p7
NNNI-1
I-1
I0
tp8
bS'\xa7\xfb?@'
p9
tp10
Rp11
ag2
(g6
S'\x9a\x8d4@'
p12
tp13
Rp14
ag2
(g6
S'\xff\xb7\x92@'
p15
tp16
Rp17
ag2
(g6
S'f]6@'
p18
tp19
Rp20
ag2
(g6
S'Ax1@'
p21
tp22
Rp23
ag2
(g6
S'b\xae5@'
p24
tp25
Rp26
ag2
(g6
S'\x14\xd4\x9d@'
p27
tp28
Rp29
ag2
(g6
S'Ch;@'
p30
tp31
Rp32
ag2
(g6
S'DV\xb5@'
p33
tp34
Rp35
ag2
(g6
S'd\xf2\x9a@'
p36
tp37
Rp38
ag2
(g6
S'F\xbe\x93@'
p39
tp40
Rp41
ag2
(g6
S'#\xb4<@'
p42
tp43
Rp44
ag2
(g6
S'g\xe77@'
p45
tp46
Rp47
ag2
(g6
S'\xa8\xe9\x97@'
p48
tp49
Rp50
ag2
(g6
S'\x9ej\x9f@'
p51
tp52
Rp53
ag2
(g6
S'\n\x8b\xb6@'
p54
tp55
Rp56
ag2
(g6
S'L-<@'
p57
tp58
Rp59
ag2
(g6
S'\x0fk\xb2@'
p60
tp61
Rp62
ag2
(g6
S'\x99\xe7/@'
p63
tp64
Rp65
ag2
(g6
S'\xbe\x8d\xb3@'
p66
tp67
Rp68
ag2
(g6
S'\xd4Q\x9b@'
p69
tp70
Rp71
ag2
(g6
S'\xa7\xb8\x9f@'
p72
tp73
Rp74
ag2
(g6
S'o\xa9\x91@'
p75
tp76
Rp77
ag2
(g6
S'U\xce3@'
p78
tp79
Rp80
ag2
(g6
S'\x17w>@'
p81
tp82
Rp83
ag2
(g6
S'\xf9q\x93@'
p84
tp85
Rp86
ag2
(g6
S'\xf4Z\x97@'
p87
tp88
Rp89
ag2
(g6
S'\xfe\xdd\x98@'
p90
tp91
Rp92
ag2
(g6
S'\xc2\x0b3@'
p93
tp94
Rp95
asI32931
(lp96
g2
(g6
S'\xdeI @'
p97
tp98
Rp99
ag2
(g6
S'\x80\xe4*@'
p100
tp101
Rp102
ag2
(g6
S'?\xba!@'
p103
tp104
Rp105
ag2
(g6
S'\xf8\xf3"@'
p106
tp107
Rp108
ag2
(g6
S'\xe7B\xba@'
p109
tp110
Rp111
ag2
(g6
S'\x90\xfc\xbf@'
p112
tp113
Rp114
ag2
(g6
S'\x9ao-@'
p115
tp116
Rp117
ag2
(g6
S'8\xed(@'
p118
tp119
Rp120
ag2
(g6
S'cs$@'
p121
tp122
Rp123
ag2
(g6
S'\x95\x88\xb6@'
p124
tp125
Rp126
ag2
(g6
S'\xc4S*@'
p127
tp128
Rp129
ag2
(g6
S'\xadC0@'
p130
tp131
Rp132
ag2
(g6
S'\x1b\xb1+@'
p133
tp134
Rp135
asI32228
(lp136
g2
(g6
S'^\xc5\x7f@'
p137
tp138
Rp139
ag2
(g6
S'\xa9rq@'
p140
tp141
Rp142
ag2
(g6
S'\xcf7s@'
p143
tp144
Rp145
ag2
(g6
S'\xd0\xe5\xaf@'
p146
tp147
Rp148
ag2
(g6
S'\xf9\xe7y@'
p149
tp150
Rp151
ag2
(g6
S'b\x01{@'
p152
tp153
Rp154
ag2
(g6
S'\xdb\x04}@'
p155
tp156
Rp157
ag2
(g6
S'a]n@'
p158
tp159
Rp160
asI32201
(lp161
g2
(g6
S"\x8c\xf2'@"
p162
tp163
Rp164
ag2
(g6
S"\xe8\x0c'@"
p165
tp166
Rp167
ag2
(g6
S'G\xf9t@'
p168
tp169
Rp170
ag2
(g6
S'\x04Ps@'
p171
tp172
Rp173
ag2
(g6
S'[\x1er@'
p174
tp175
Rp176
ag2
(g6
S'$\xe8n@'
p177
tp178
Rp179
ag2
(g6
S'5\x08*@'
p180
tp181
Rp182
ag2
(g6
S'd\xe2m@'
p183
tp184
Rp185
asI32234
(lp186
g2
(g6
S'\xc0\xc7\xac@'
p187
tp188
Rp189
ag2
(g6
S'"\x15\xaa@'
p190
tp191
Rp192
ag2
(g6
S'\xe8[j@'
p193
tp194
Rp195
ag2
(g6
S'\x01\x85\xab@'
p196
tp197
Rp198
ag2
(g6
S'{+\xa5@'
p199
tp200
Rp201
ag2
(g6
S'\x93\xf6\xae@'
p202
tp203
Rp204
ag2
(g6
S'\xe5\xcc\xb0@'
p205
tp206
Rp207
ag2
(g6
S'Q-\xb1@'
p208
tp209
Rp210
ag2
(g6
S'&Jl@'
p211
tp212
Rp213
asI34189
(lp214
g2
(g6
S'F\xeb.@'
p215
tp216
Rp217
ag2
(g6
S'\xab\x955@'
p218
tp219
Rp220
ag2
(g6
S'K\x025@'
p221
tp222
Rp223
ag2
(g6
S'\x81\xad1@'
p224
tp225
Rp226
ag2
(g6
S'#o\xce@'
p227
tp228
Rp229
ag2
(g6
S'\xa4\xf0\xa1@'
p230
tp231
Rp232
ag2
(g6
S'\xc63:@'
p233
tp234
Rp235
ag2
(g6
S'\xc7\xc3\xcc@'
p236
tp237
Rp238
ag2
(g6
S'\xc8\xd8\xce@'
p239
tp240
Rp241
ag2
(g6
S'K\xb9\xaf@'
p242
tp243
Rp244
ag2
(g6
S'\xeew8@'
p245
tp246
Rp247
ag2
(g6
S'o\xe1\x8f@'
p248
tp249
Rp250
ag2
(g6
S'\x91N\xcb@'
p251
tp252
Rp253
ag2
(g6
S'+\xcd\x9e@'
p254
tp255
Rp256
ag2
(g6
S'V\xfb\xcf@'
p257
tp258
Rp259
ag2
(g6
S'\xb7i\x8d@'
p260
tp261
Rp262
ag2
(g6
S'x\xb4?@'
p263
tp264
Rp265
ag2
(g6
S':\xaf<@'
p266
tp267
Rp268
ag2
(g6
S'^R\xae@'
p269
tp270
Rp271
ag2
(g6
S'\xfc\x97\x8f@'
p272
tp273
Rp274
ag2
(g6
S'\x9d\x89\x88@'
p275
tp276
Rp277
ag2
(g6
S'\xfe&?@'
p278
tp279
Rp280
asI32238
(lp281
g2
(g6
S'\xac\x17,@'
p282
tp283
Rp284
asI32239
(lp285
g2
(g6
S'-\xad\x1f@'
p286
tp287
Rp288
ag2
(g6
S'}3\n@'
p289
tp290
Rp291
ag2
(g6
S'\x17\xeb\x16@'
p292
tp293
Rp294
ag2
(g6
S'\xac\xa5\x15@'
p295
tp296
Rp297
ag2
(g6
S'9>Y@'
p298
tp299
Rp300
ag2
(g6
S'\xc3\xea\x1e@'
p301
tp302
Rp303
ag2
(g6
S'\x04kS@'
p304
tp305
Rp306
ag2
(g6
S'\xd5\xf6\x85@'
p307
tp308
Rp309
asI32273
(lp310
g2
(g6
S'$\xfcS@'
p311
tp312
Rp313
ag2
(g6
S'\xc6^X@'
p314
tp315
Rp316
ag2
(g6
S'?\x7fT@'
p317
tp318
Rp319
ag2
(g6
S'cK\x9f@'
p320
tp321
Rp322
ag2
(g6
S'\xa4$X@'
p323
tp324
Rp325
ag2
(g6
S'T\xf1W@'
p326
tp327
Rp328
ag2
(g6
S't\x84\xc7@'
p329
tp330
Rp331
ag2
(g6
S"'\xe7T@"
p332
tp333
Rp334
ag2
(g6
S'\x8a\xb5\xc7@'
p335
tp336
Rp337
ag2
(g6
S',\xd9\x9b@'
p338
tp339
Rp340
ag2
(g6
S'\x92*\xc7@'
p341
tp342
Rp343
ag2
(g6
S'\xcd\xcf\xcd@'
p344
tp345
Rp346
ag2
(g6
S'\xee}\x9a@'
p347
tp348
Rp349
ag2
(g6
S'\x0f\xdb\xc8@'
p350
tp351
Rp352
ag2
(g6
S'\x90\x89\x9e@'
p353
tp354
Rp355
ag2
(g6
S'\x11\xb0\xcc@'
p356
tp357
Rp358
ag2
(g6
S'\x9b\x05\xce@'
p359
tp360
Rp361
ag2
(g6
S'\xf3\xaf\x9b@'
p362
tp363
Rp364
ag2
(g6
S'\xb4{\x9c@'
p365
tp366
Rp367
ag2
(g6
S'\x15%S@'
p368
tp369
Rp370
ag2
(g6
S'V\xf8\xc9@'
p371
tp372
Rp373
ag2
(g6
S'\x97\xe9\xce@'
p374
tp375
Rp376
ag2
(g6
S'.{\x9f@'
p377
tp378
Rp379
ag2
(g6
S'\x1a\xe7U@'
p380
tp381
Rp382
ag2
(g6
S'{T\xcb@'
p383
tp384
Rp385
ag2
(g6
S'|\xc4R@'
p386
tp387
Rp388
ag2
(g6
S'\x7f\xfc\x99@'
p389
tp390
Rp391
ag2
(g6
S'leV@'
p392
tp393
Rp394
ag2
(g6
S'^\xfa\x9f@'
p395
tp396
Rp397
asI34165
(lp398
g2
(g6
S'"\xd5\n@'
p399
tp400
Rp401
ag2
(g6
S'\x9d]\x03@'
p402
tp403
Rp404
ag2
(g6
S'\xb1d\x05@'
p405
tp406
Rp407
ag2
(g6
S'\x12}\x11@'
p408
tp409
Rp410
ag2
(g6
S'\xf6v\x06@'
p411
tp412
Rp413
ag2
(g6
S'\xdc%\x0c@'
p414
tp415
Rp416
ag2
(g6
S'=\x91\x02@'
p417
tp418
Rp419
ag2
(g6
S'\xb6A\x00@'
p420
tp421
Rp422
asI32233
(lp423
g2
(g6
S'7\xf2\xa1@'
p424
tp425
Rp426
ag2
(g6
S'\xa5z\xaa@'
p427
tp428
Rp429
ag2
(g6
S'\xc8Q\xa4@'
p430
tp431
Rp432
ag2
(g6
S'Yqu@'
p433
tp434
Rp435
ag2
(g6
S'>\xd2w@'
p436
tp437
Rp438
ag2
(g6
S'\xe2\xea\x7f@'
p439
tp440
Rp441
ag2
(g6
S'\xbd\xf3\xa6@'
p442
tp443
Rp444
ag2
(g6
S'\xb6\xf8s@'
p445
tp446
Rp447
asI30506
(lp448
g2
(g6
S'\x8d\x98\x9e@'
p449
tp450
Rp451
ag2
(g6
S'%\x91\x9f@'
p452
tp453
Rp454
ag2
(g6
S'\x9cQ\x9e@'
p455
tp456
Rp457
ag2
(g6
S'P\xdd\xa0@'
p458
tp459
Rp460
ag2
(g6
S'\xdaR\x9f@'
p461
tp462
Rp463
ag2
(g6
S"'\x9e\xa0@"
p464
tp465
Rp466
ag2
(g6
S'\xa4\xdc\x9f@'
p467
tp468
Rp469
ag2
(g6
S'\x16\xbd\xa0@'
p470
tp471
Rp472
as.